(lp0
(lp1
I0
aI0
aI0
aI0
aI0
aa(lp2
I1
aI1
aI1
aI1
aI1
aa(lp3
I1
aI1
aI1
aI1
aI3
aa(lp4
I1
aI1
aI1
aI4
aI4
aa(lp5
I1
aI1
aI6
aI8
aI8
aa(lp6
I1
aI3
aI8
aI10
aI10
aa(lp7
I1
aI6
aI12
aI12
aI12
aa(lp8
I1
aI5
aI12
aI14
aI14
aa(lp9
I2
aI13
aI16
aI16
aI16
aa(lp10
I3
aI14
aI18
aI18
aI18
aa(lp11
I4
aI14
aI20
aI20
aI20
aa(lp12
I5
aI22
aI22
aI22
aI22
aa(lp13
I8
aI24
aI24
aI24
aI24
aa(lp14
I12
aI22
aI26
aI26
aI26
aa(lp15
I12
aI28
aI28
aI28
aI28
aa(lp16
I15
aI30
aI30
aI30
aI30
aa(lp17
I24
aI32
aI32
aI32
aI32
aa(lp18
I24
aI34
aI34
aI34
aI34
aa(lp19
I29
aI36
aI36
aI36
aI36
aa(lp20
I25
aI38
aI38
aI38
aI38
aa(lp21
I33
aI40
aI40
aI40
aI40
aa(lp22
I37
aI42
aI42
aI42
aI42
aa(lp23
I37
aI44
aI44
aI44
aI44
aa(lp24
I43
aI46
aI46
aI46
aI46
aa(lp25
I42
aI48
aI48
aI48
aI48
aa.