(lp0
(lp1
I0
aI0
aI0
aI0
aI0
aa(lp2
I1
aI1
aI1
aI1
aI1
aa(lp3
I3
aI2
aI1
aI1
aI1
aa(lp4
I3
aI1
aI1
aI1
aI1
aa(lp5
I5
aI1
aI1
aI1
aI1
aa(lp6
I3
aI1
aI1
aI1
aI1
aa(lp7
I3
aI1
aI1
aI1
aI1
aa(lp8
I3
aI1
aI1
aI1
aI1
aa(lp9
I2
aI1
aI1
aI1
aI1
aa(lp10
I2
aI1
aI1
aI1
aI1
aa(lp11
I1
aI1
aI1
aI1
aI1
aa(lp12
I1
aI1
aI1
aI1
aI1
aa(lp13
I1
aI1
aI1
aI1
aI1
aa(lp14
I1
aI1
aI1
aI1
aI1
aa(lp15
I1
aI1
aI1
aI1
aI1
aa(lp16
I1
aI1
aI1
aI1
aI1
aa(lp17
I1
aI1
aI1
aI1
aI1
aa(lp18
I1
aI1
aI1
aI1
aI1
aa(lp19
I1
aI1
aI1
aI1
aI1
aa(lp20
I1
aI1
aI1
aI1
aI1
aa(lp21
I1
aI1
aI1
aI1
aI1
aa(lp22
I1
aI1
aI1
aI1
aI1
aa(lp23
I1
aI1
aI1
aI1
aI1
aa(lp24
I1
aI1
aI1
aI1
aI1
aa(lp25
I1
aI1
aI1
aI1
aI1
aa.