(lp0
(lp1
F1.735769407713216e-05
aF1.5033272435498809e-05
aF1.4640837612885419e-05
aF1.436915196646074e-05
aF1.4369151966460707e-05
aa(lp2
F3.513801027092487e-05
aF3.220984274834793e-05
aF3.230040463048934e-05
aF3.2511715688819705e-05
aF3.2964525099527395e-05
aa(lp3
F5.729548410155962e-05
aF7.097032830493537e-05
aF6.870628125139628e-05
aF5.8472788569399746e-05
aF5.832185209916439e-05
aa(lp4
F9.382210989865545e-05
aF9.173918660939917e-05
aF9.406360825103301e-05
aF0.0001389521144991985
aF9.593522048195746e-05
aa(lp5
F0.0001751768673558224
aF0.00022936306017052148
aF0.00027340632218536657
aF0.00021152236938863574
aF0.00019120632049487787
aa(lp6
F0.00036659449890903136
aF0.0001980286489495428
aF0.0002060584691660934
aF0.00019709284283408042
aF0.00020817157974939714
aa(lp7
F0.0002462981321309995
aF0.0002437623994310259
aF0.0003423842890831891
aF0.00026084840786173705
aF0.0002536638318785103
aa(lp8
F0.0003015106929432951
aF0.0003079707738693954
aF0.0003124384933883784
aF0.0003200155041942182
aF0.0003275019531179174
aa(lp9
F0.0003702471614887404
aF0.00038177870781476165
aF0.0003914688292039059
aF0.0004115735670393389
aF0.000424463541597489
aa(lp10
F0.00047339714524797236
aF0.00047101234901824885
aF0.0004934113212012537
aF0.0004976073550738203
aF0.0005217270030175192
aa(lp11
F0.0005665551346775877
aF0.0005640797765657235
aF0.000585331631574948
aF0.0006088475336376908
aF0.0006133454404507133
aa(lp12
F0.0007177934778539785
aF0.0006696447438487296
aF0.0006977793019006973
aF0.0007106692764588529
aF0.0007395887041560745
aa(lp13
F0.0007543502909451271
aF0.0007891562409815589
aF0.0008426179387391097
aF0.0008207321505548926
aF0.0008504968224853804
aa(lp14
F0.0008765484572481608
aF0.0010123610931664583
aF0.0009238821343141024
aF0.0009820228626490346
aF0.000990263993923901
aa(lp15
F0.001003576590598676
aF0.001089942438867708
aF0.0010759053471357748
aF0.001121337224676755
aF0.0011116471032876051
aa(lp16
F0.001144068257094333
aF0.0011956281553269
aF0.0012682889720984636
aF0.0012546141278951483
aF0.0012613157071735715
aa(lp17
F0.0013142038463442418
aF0.001323652469380976
aF0.001491403262401203
aF0.0014061845313060315
aF0.0014704230930384422
aa(lp18
F0.001420704619742752
aF0.002157727403904852
aF0.002301811358391981
aF0.0016877112355901502
aF0.0015931646306343028
aa(lp19
F0.0015700713506881848
aF0.0017168721616396486
aF0.0017795711713756823
aF0.0021742398537486496
aF0.001758651376600917
aa(lp20
F0.0018806684191397416
aF0.0019364545385388786
aF0.001908833164485735
aF0.0019449371681661497
aF0.0019311113874925345
aa(lp21
F0.0019220250119843074
aF0.001997130999573793
aF0.0023013283616873715
aF0.0021421809474703847
aF0.002179492442912822
aa(lp22
F0.002174451164806968
aF0.0021895448118304907
aF0.0022766351551566366
aF0.0024393748573651396
aF0.0026099028814376537
aa(lp23
F0.002525469019987714
aF0.002395784404760981
aF0.0025051831583879024
aF0.002604801228743625
aF0.00277191808858892
aa(lp24
F0.0025010173118093617
aF0.002584787052790327
aF0.002887384488319311
aF0.0028246251039951266
aF0.0028443675943020884
aa(lp25
F0.002723769354583583
aF0.002825651471992785
aF0.002977614310226295
aF0.0031328977508051194
aF0.003142346373841898
aa.